target datalayout = "e-m:e-p270:32:32-p271:32:32-p272:64:64-i64:64-i128:128-f80:128-n8:16:32:64-S128"
target triple = "x86_64-pc-linux-gnu"

@bio_err = external global ptr, align 8
@.str.127 = private unnamed_addr constant [9 x i8] c"peer key\00", align 1
@.str.128 = private unnamed_addr constant [27 x i8] c"Error reading peer key %s\0A\00", align 1
@.str.129 = private unnamed_addr constant [68 x i8] c"Type of peer public key: %s does not match type of private key: %s\0A\00", align 1

; Function Attrs: nounwind uwtable
define internal i32 @setup_peer(ptr noundef %0, i32 noundef %1, ptr noundef %2, ptr noundef %3) #0 {
  %5 = alloca i32, align 4
  %6 = alloca ptr, align 8
  %7 = alloca i32, align 4
  %8 = alloca ptr, align 8
  %9 = alloca ptr, align 8
  %10 = alloca ptr, align 8
  %11 = alloca ptr, align 8
  %12 = alloca ptr, align 8
  %13 = alloca i32, align 4
  %14 = alloca i32, align 4
  store ptr %0, ptr %6, align 8, !tbaa !17
  store i32 %1, ptr %7, align 4, !tbaa !4
  store ptr %2, ptr %8, align 8, !tbaa !21
  store ptr %3, ptr %9, align 8, !tbaa !15
  call void @llvm.lifetime.start.p0(i64 8, ptr %10) #7
  %15 = load ptr, ptr %6, align 8, !tbaa !17
  %16 = call ptr @EVP_PKEY_CTX_get0_pkey(ptr noundef %15)
  store ptr %16, ptr %10, align 8, !tbaa !19
  call void @llvm.lifetime.start.p0(i64 8, ptr %11) #7
  store ptr null, ptr %11, align 8, !tbaa !19
  call void @llvm.lifetime.start.p0(i64 8, ptr %12) #7
  store ptr null, ptr %12, align 8, !tbaa !15
  call void @llvm.lifetime.start.p0(i64 4, ptr %13) #7
  store i32 1, ptr %13, align 4, !tbaa !4
  %17 = load i32, ptr %7, align 4, !tbaa !4
  %18 = icmp eq i32 %17, 8
  br i1 %18, label %19, label %21

19:                                               ; preds = %4
  %20 = load ptr, ptr %9, align 8, !tbaa !15
  store ptr %20, ptr %12, align 8, !tbaa !15
  br label %21

21:                                               ; preds = %19, %4
  %22 = load ptr, ptr %8, align 8, !tbaa !21
  %23 = load i32, ptr %7, align 4, !tbaa !4
  %24 = load ptr, ptr %12, align 8, !tbaa !15
  %25 = call ptr @load_pubkey(ptr noundef %22, i32 noundef %23, i32 noundef 0, ptr noundef null, ptr noundef %24, ptr noundef @.str.127)
  store ptr %25, ptr %11, align 8, !tbaa !19
  %26 = load ptr, ptr %11, align 8, !tbaa !19
  %27 = icmp eq ptr %26, null
  br i1 %27, label %28, label %32

28:                                               ; preds = %21
  %29 = load ptr, ptr @bio_err, align 8, !tbaa !13
  %30 = load ptr, ptr %8, align 8, !tbaa !21
  %31 = call i32 (ptr, ptr, ...) @BIO_printf(ptr noundef %29, ptr noundef @.str.128, ptr noundef %30)
  store i32 0, ptr %5, align 4
  store i32 1, ptr %14, align 4
  br label %55

32:                                               ; preds = %21
  %33 = load ptr, ptr %11, align 8, !tbaa !19
  %34 = call ptr @EVP_PKEY_get0_type_name(ptr noundef %33)
  %35 = load ptr, ptr %10, align 8, !tbaa !19
  %36 = call ptr @EVP_PKEY_get0_type_name(ptr noundef %35)
  %37 = call i32 @strcmp(ptr noundef %34, ptr noundef %36) #8
  %38 = icmp ne i32 %37, 0
  br i1 %38, label %39, label %46

39:                                               ; preds = %32
  %40 = load ptr, ptr @bio_err, align 8, !tbaa !13
  %41 = load ptr, ptr %11, align 8, !tbaa !19
  %42 = call ptr @EVP_PKEY_get0_type_name(ptr noundef %41)
  %43 = load ptr, ptr %10, align 8, !tbaa !19
  %44 = call ptr @EVP_PKEY_get0_type_name(ptr noundef %43)
  %45 = call i32 (ptr, ptr, ...) @BIO_printf(ptr noundef %40, ptr noundef @.str.129, ptr noundef %42, ptr noundef %44)
  store i32 0, ptr %13, align 4, !tbaa !4
  br label %52

46:                                               ; preds = %32
  %47 = load ptr, ptr %6, align 8, !tbaa !17
  %48 = load ptr, ptr %11, align 8, !tbaa !19
  %49 = call i32 @EVP_PKEY_derive_set_peer(ptr noundef %47, ptr noundef %48)
  %50 = icmp sgt i32 %49, 0
  %51 = zext i1 %50 to i32
  store i32 %51, ptr %13, align 4, !tbaa !4
  br label %52

52:                                               ; preds = %46, %39
  %53 = load ptr, ptr %11, align 8, !tbaa !19
  call void @EVP_PKEY_free(ptr noundef %53)
  %54 = load i32, ptr %13, align 4, !tbaa !4
  store i32 %54, ptr %5, align 4
  store i32 1, ptr %14, align 4
  br label %55

55:                                               ; preds = %52, %28
  call void @llvm.lifetime.end.p0(i64 4, ptr %13) #7
  call void @llvm.lifetime.end.p0(i64 8, ptr %12) #7
  call void @llvm.lifetime.end.p0(i64 8, ptr %11) #7
  call void @llvm.lifetime.end.p0(i64 8, ptr %10) #7
  %56 = load i32, ptr %5, align 4
  ret i32 %56
}