; Function Attrs: nounwind uwtable
define internal fastcc range(i32 0, 2) i32 @setup_peer(ptr noundef nonnull %0, i32 noundef %1, ptr noundef nonnull %2, ptr noundef %3) unnamed_addr #0 {
  %5 = tail call ptr @EVP_PKEY_CTX_get0_pkey(ptr noundef nonnull %0) #7
  %6 = icmp eq i32 %1, 8
  %spec.select = select i1 %6, ptr %3, ptr null
  %7 = tail call ptr @load_pubkey(ptr noundef nonnull %2, i32 noundef %1, i32 noundef 0, ptr noundef null, ptr noundef %spec.select, ptr noundef nonnull @.str.127) #7
  %8 = icmp eq ptr %7, null
  br i1 %8, label %9, label %12

9:                                                ; preds = %4
  %10 = load ptr, ptr @bio_err, align 8, !tbaa !15
  %11 = tail call i32 (ptr, ptr, ...) @BIO_printf(ptr noundef %10, ptr noundef nonnull @.str.128, ptr noundef nonnull %2) #7
  br label %26

12:                                               ; preds = %4
  %13 = tail call ptr @EVP_PKEY_get0_type_name(ptr noundef nonnull %7) #7
  %14 = tail call ptr @EVP_PKEY_get0_type_name(ptr noundef %5) #7
  %15 = tail call i32 @strcmp(ptr noundef nonnull dereferenceable(1) %13, ptr noundef nonnull dereferenceable(1) %14) #8
  %.not = icmp eq i32 %15, 0
  br i1 %.not, label %21, label %16

16:                                               ; preds = %12
  %17 = load ptr, ptr @bio_err, align 8, !tbaa !15
  %18 = tail call ptr @EVP_PKEY_get0_type_name(ptr noundef nonnull %7) #7
  %19 = tail call ptr @EVP_PKEY_get0_type_name(ptr noundef %5) #7
  %20 = tail call i32 (ptr, ptr, ...) @BIO_printf(ptr noundef %17, ptr noundef nonnull @.str.129, ptr noundef %18, ptr noundef %19) #7
  br label %25

21:                                               ; preds = %12
  %22 = tail call i32 @EVP_PKEY_derive_set_peer(ptr noundef nonnull %0, ptr noundef nonnull %7) #7
  %23 = icmp sgt i32 %22, 0
  %24 = zext i1 %23 to i32
  br label %25

25:                                               ; preds = %21, %16
  %.0 = phi i32 [ 0, %16 ], [ %24, %21 ]
  tail call void @EVP_PKEY_free(ptr noundef nonnull %7) #7
  br label %26

26:                                               ; preds = %25, %9
  %.017 = phi i32 [ 0, %9 ], [ %.0, %25 ]
  ret i32 %.017
}